target datalayout = "e-m:e-p270:32:32-p271:32:32-p272:64:64-i64:64-i128:128-f80:128-n8:16:32:64-S128"
target triple = "x86_64-pc-linux-gnu"

%"struct.boost::urls::url_base::op_t" = type { ptr, ptr, ptr, ptr }
%"class.boost::urls::url_view_base" = type { [8 x i8], %"struct.boost::urls::detail::url_impl", ptr }
%"struct.boost::urls::detail::url_impl" = type <{ ptr, [8 x i64], [7 x i64], i64, i64, [16 x i8], i16, [2 x i8], i32, i16, i8, [5 x i8] }>

@_ZN5boost4urls8url_base4op_tD1Ev = unnamed_addr alias void (ptr), ptr @_ZN5boost4urls8url_base4op_tD2Ev
@_ZN5boost4urls8url_base4op_tC1ERS1_PNS_4core17basic_string_viewIcEES7_ = unnamed_addr alias void (ptr, ptr, ptr, ptr), ptr @_ZN5boost4urls8url_base4op_tC2ERS1_PNS_4core17basic_string_viewIcEES7_

; Function Attrs: mustprogress nounwind uwtable
define noundef nonnull align 8 dereferenceable(216) ptr @_ZN5boost4urls8url_base15remove_userinfoEv(ptr noundef nonnull align 8 dereferenceable(216) %0) #2 align 2 personality ptr @__gxx_personality_v0 {
  %2 = alloca ptr, align 8
  %3 = alloca ptr, align 8
  %4 = alloca %"struct.boost::urls::url_base::op_t", align 8
  store ptr %0, ptr %3, align 8, !tbaa !7
  %5 = load ptr, ptr %3, align 8
  %6 = getelementptr inbounds i8, ptr %5, i64 8
  %7 = getelementptr inbounds nuw %"class.boost::urls::url_view_base", ptr %6, i32 0, i32 1
  %8 = call noundef i64 @_ZNK5boost4urls6detail8url_impl3lenEi(ptr noundef nonnull align 8 dereferenceable(171) %7, i32 noundef 1) #9
  %9 = icmp eq i64 %8, 0
  br i1 %9, label %10, label %11

10:                                               ; preds = %1
  store ptr %5, ptr %2, align 8
  br label %22

11:                                               ; preds = %1
  call void @llvm.lifetime.start.p0(i64 32, ptr %4) #9
  call void @_ZN5boost4urls8url_base4op_tC1ERS1_PNS_4core17basic_string_viewIcEES7_(ptr noundef nonnull align 8 dereferenceable(32) %4, ptr noundef nonnull align 8 dereferenceable(216) %5, ptr noundef null, ptr noundef null) #9
  %12 = invoke noundef ptr @_ZN5boost4urls8url_base11resize_implEiimRNS1_4op_tE(ptr noundef nonnull align 8 dereferenceable(216) %5, i32 noundef 0, i32 noundef 2, i64 noundef 2, ptr noundef nonnull align 8 dereferenceable(32) %4)
          to label %13 unwind label %24

13:                                               ; preds = %11
  %14 = getelementptr inbounds i8, ptr %5, i64 8
  %15 = getelementptr inbounds nuw %"class.boost::urls::url_view_base", ptr %14, i32 0, i32 1
  %16 = getelementptr inbounds nuw %"struct.boost::urls::detail::url_impl", ptr %15, i32 0, i32 2
  %17 = getelementptr inbounds [7 x i64], ptr %16, i64 0, i64 0
  store i64 0, ptr %17, align 8, !tbaa !21
  %18 = getelementptr inbounds i8, ptr %5, i64 8
  %19 = getelementptr inbounds nuw %"class.boost::urls::url_view_base", ptr %18, i32 0, i32 1
  %20 = getelementptr inbounds nuw %"struct.boost::urls::detail::url_impl", ptr %19, i32 0, i32 2
  %21 = getelementptr inbounds [7 x i64], ptr %20, i64 0, i64 1
  store i64 0, ptr %21, align 8, !tbaa !21
  store ptr %5, ptr %2, align 8
  call void @_ZN5boost4urls8url_base4op_tD1Ev(ptr noundef nonnull align 8 dereferenceable(32) %4) #9
  call void @llvm.lifetime.end.p0(i64 32, ptr %4) #9
  br label %22

22:                                               ; preds = %13, %10
  %23 = load ptr, ptr %2, align 8
  ret ptr %23

24:                                               ; preds = %11
  %25 = landingpad { ptr, i32 }
          catch ptr null
  %26 = extractvalue { ptr, i32 } %25, 0
  call void @__clang_call_terminate(ptr %26) #21
  unreachable
}